target datalayout = "e-m:e-p270:32:32-p271:32:32-p272:64:64-i64:64-i128:128-f80:128-n8:16:32:64-S128"
target triple = "x86_64-pc-linux-gnu"

@.str.194 = private unnamed_addr constant [23 x i8] c"LBTRM:%s:%u:%08x:%s:%u\00", align 1

; Function Attrs: null_pointer_is_valid sspstrong uwtable
define internal ptr @lbtrm_transport_source_string_format(ptr noundef %0, ptr noundef %1, i16 noundef zeroext %2, i32 noundef %3, ptr noundef %4, i16 noundef zeroext %5) #0 {
  %7 = alloca ptr, align 8
  %8 = alloca ptr, align 8
  %9 = alloca i16, align 2
  %10 = alloca i32, align 4
  %11 = alloca ptr, align 8
  %12 = alloca i16, align 2
  store ptr %0, ptr %7, align 8
  store ptr %1, ptr %8, align 8
  store i16 %2, ptr %9, align 2
  store i32 %3, ptr %10, align 4
  store ptr %4, ptr %11, align 8
  store i16 %5, ptr %12, align 2
  %13 = load ptr, ptr %7, align 8
  %14 = load ptr, ptr %7, align 8
  %15 = load ptr, ptr %8, align 8
  %16 = call ptr @address_to_str(ptr noundef %14, ptr noundef %15)
  %17 = load i16, ptr %9, align 2
  %18 = zext i16 %17 to i32
  %19 = load i32, ptr %10, align 4
  %20 = load ptr, ptr %7, align 8
  %21 = load ptr, ptr %11, align 8
  %22 = call ptr @address_to_str(ptr noundef %20, ptr noundef %21)
  %23 = load i16, ptr %12, align 2
  %24 = zext i16 %23 to i32
  %25 = call noalias ptr (ptr, ptr, ...) @wmem_strdup_printf(ptr noundef %13, ptr noundef @.str.194, ptr noundef %16, i32 noundef %18, i32 noundef %19, ptr noundef %22, i32 noundef %24)
  ret ptr %25
}

; Function Attrs: null_pointer_is_valid sspstrong uwtable
define hidden ptr @lbtrm_transport_source_string(ptr noundef %0, i16 noundef zeroext %1, i32 noundef %2, ptr noundef %3, i16 noundef zeroext %4) #0 {
  %6 = alloca ptr, align 8
  %7 = alloca i16, align 2
  %8 = alloca i32, align 4
  %9 = alloca ptr, align 8
  %10 = alloca i16, align 2
  store ptr %0, ptr %6, align 8
  store i16 %1, ptr %7, align 2
  store i32 %2, ptr %8, align 4
  store ptr %3, ptr %9, align 8
  store i16 %4, ptr %10, align 2
  %11 = call ptr @wmem_file_scope()
  %12 = load ptr, ptr %6, align 8
  %13 = load i16, ptr %7, align 2
  %14 = load i32, ptr %8, align 4
  %15 = load ptr, ptr %9, align 8
  %16 = load i16, ptr %10, align 2
  %17 = call ptr @lbtrm_transport_source_string_format(ptr noundef %11, ptr noundef %12, i16 noundef zeroext %13, i32 noundef %14, ptr noundef %15, i16 noundef zeroext %16)
  ret ptr %17
}