; Function Attrs: null_pointer_is_valid sspstrong uwtable
define hidden noalias ptr @lbtrm_transport_source_string(ptr noundef %0, i16 noundef zeroext %1, i32 noundef %2, ptr noundef %3, i16 noundef zeroext %4) local_unnamed_addr #0 {
  %6 = tail call ptr @wmem_file_scope()
  %7 = tail call ptr @address_to_str(ptr noundef %6, ptr noundef %0)
  %8 = zext i16 %1 to i32
  %9 = tail call ptr @address_to_str(ptr noundef %6, ptr noundef %3)
  %10 = zext i16 %4 to i32
  %11 = tail call noalias ptr (ptr, ptr, ...) @wmem_strdup_printf(ptr noundef %6, ptr noundef nonnull @.str.194, ptr noundef %7, i32 noundef %8, i32 noundef %2, ptr noundef %9, i32 noundef %10)
  ret ptr %11
}